; Function Attrs: mustprogress uwtable
define void @_ZN6casadi9LogSumExpC2ERKNS_2MXE(ptr noundef nonnull align 8 dereferenceable(64) %0, ptr noundef nonnull align 8 dereferenceable(8) %1) unnamed_addr #3 align 2 personality ptr @__gxx_personality_v0 {
  %3 = alloca %"class.casadi::Sparsity", align 8
  tail call void @_ZN6casadi6MXNodeC2Ev(ptr noundef nonnull align 8 dereferenceable(64) %0)
  store ptr getelementptr inbounds ({ [108 x ptr] }, ptr @_ZTVN6casadi9LogSumExpE, i64 0, i32 0, i64 2), ptr %0, align 8
  invoke void @_ZN6casadi6MXNode7set_depERKNS_2MXE(ptr noundef nonnull align 8 dereferenceable(64) %0, ptr noundef nonnull align 8 dereferenceable(8) %1)
          to label %4 unwind label %7

4:                                                ; preds = %2
  invoke void @_ZN6casadi8Sparsity5denseExx(ptr dead_on_unwind nonnull writable sret(%"class.casadi::Sparsity") align 8 %3, i64 noundef 1, i64 noundef 1)
          to label %5 unwind label %7

5:                                                ; preds = %4
  invoke void @_ZN6casadi6MXNode12set_sparsityERKNS_8SparsityE(ptr noundef nonnull align 8 dereferenceable(64) %0, ptr noundef nonnull align 8 dereferenceable(8) %3)
          to label %6 unwind label %9

6:                                                ; preds = %5
  call void @_ZN6casadi12SharedObjectD2Ev(ptr noundef nonnull align 8 dereferenceable(8) %3) #13
  ret void

7:                                                ; preds = %4, %2
  %8 = landingpad { ptr, i32 }
          cleanup
  br label %11

9:                                                ; preds = %5
  %10 = landingpad { ptr, i32 }
          cleanup
  call void @_ZN6casadi12SharedObjectD2Ev(ptr noundef nonnull align 8 dereferenceable(8) %3) #13
  br label %11

11:                                               ; preds = %9, %7
  %.pn = phi { ptr, i32 } [ %10, %9 ], [ %8, %7 ]
  call void @_ZN6casadi6MXNodeD2Ev(ptr noundef nonnull align 8 dereferenceable(64) %0) #13
  resume { ptr, i32 } %.pn
}